target datalayout = "e-m:e-p270:32:32-p271:32:32-p272:64:64-i64:64-i128:128-f80:128-n8:16:32:64-S128"
target triple = "x86_64-pc-linux-gnu"

%"class.std::__cxx11::basic_string" = type { %"struct.std::__cxx11::basic_string<char>::_Alloc_hider", i64, %union.anon }
%"struct.std::__cxx11::basic_string<char>::_Alloc_hider" = type { ptr }
%union.anon = type { i64, [8 x i8] }
%"class.__gnu_cxx::__normal_iterator" = type { ptr }

; Function Attrs: mustprogress nounwind uwtable
define linkonce_odr hidden noundef nonnull align 8 dereferenceable(8) ptr @_ZNK9__gnu_cxx17__normal_iteratorIPcNSt7__cxx1112basic_stringIcSt11char_traitsIcESaIcEEEE4baseEv(ptr noundef nonnull align 8 dereferenceable(8) %0) #3 comdat align 2 {
  %2 = alloca ptr, align 8
  store ptr %0, ptr %2, align 8
  %3 = load ptr, ptr %2, align 8
  %4 = getelementptr inbounds %"class.__gnu_cxx::__normal_iterator", ptr %3, i32 0, i32 0
  ret ptr %4
}

; Function Attrs: mustprogress nounwind uwtable
define linkonce_odr hidden noundef nonnull align 8 dereferenceable(8) ptr @_ZN9__gnu_cxx17__normal_iteratorIPcNSt7__cxx1112basic_stringIcSt11char_traitsIcESaIcEEEEppEv(ptr noundef nonnull align 8 dereferenceable(8) %0) #3 comdat align 2 {
  %2 = alloca ptr, align 8
  store ptr %0, ptr %2, align 8
  %3 = load ptr, ptr %2, align 8
  %4 = getelementptr inbounds %"class.__gnu_cxx::__normal_iterator", ptr %3, i32 0, i32 0
  %5 = load ptr, ptr %4, align 8
  %6 = getelementptr inbounds i8, ptr %5, i32 1
  store ptr %6, ptr %4, align 8
  ret ptr %3
}

; Function Attrs: mustprogress nounwind uwtable
define linkonce_odr hidden noundef nonnull align 1 dereferenceable(1) ptr @_ZNK9__gnu_cxx17__normal_iteratorIPcNSt7__cxx1112basic_stringIcSt11char_traitsIcESaIcEEEEdeEv(ptr noundef nonnull align 8 dereferenceable(8) %0) #3 comdat align 2 {
  %2 = alloca ptr, align 8
  store ptr %0, ptr %2, align 8
  %3 = load ptr, ptr %2, align 8
  %4 = getelementptr inbounds %"class.__gnu_cxx::__normal_iterator", ptr %3, i32 0, i32 0
  %5 = load ptr, ptr %4, align 8
  ret ptr %5
}

; Function Attrs: mustprogress nounwind uwtable
define linkonce_odr noundef zeroext i1 @_ZN9__gnu_cxxneIPcNSt7__cxx1112basic_stringIcSt11char_traitsIcESaIcEEEEEbRKNS_17__normal_iteratorIT_T0_EESD_(ptr noundef nonnull align 8 dereferenceable(8) %0, ptr noundef nonnull align 8 dereferenceable(8) %1) #3 comdat {
  %3 = alloca ptr, align 8
  %4 = alloca ptr, align 8
  store ptr %0, ptr %3, align 8
  store ptr %1, ptr %4, align 8
  %5 = load ptr, ptr %3, align 8
  %6 = call noundef nonnull align 8 dereferenceable(8) ptr @_ZNK9__gnu_cxx17__normal_iteratorIPcNSt7__cxx1112basic_stringIcSt11char_traitsIcESaIcEEEE4baseEv(ptr noundef nonnull align 8 dereferenceable(8) %5) #12
  %7 = load ptr, ptr %6, align 8
  %8 = load ptr, ptr %4, align 8
  %9 = call noundef nonnull align 8 dereferenceable(8) ptr @_ZNK9__gnu_cxx17__normal_iteratorIPcNSt7__cxx1112basic_stringIcSt11char_traitsIcESaIcEEEE4baseEv(ptr noundef nonnull align 8 dereferenceable(8) %8) #12
  %10 = load ptr, ptr %9, align 8
  %11 = icmp ne ptr %7, %10
  ret i1 %11
}

; Function Attrs: mustprogress nounwind uwtable
define linkonce_odr void @_ZSt7replaceIN9__gnu_cxx17__normal_iteratorIPcNSt7__cxx1112basic_stringIcSt11char_traitsIcESaIcEEEEEcEvT_SA_RKT0_SD_(ptr %0, ptr %1, ptr noundef nonnull align 1 dereferenceable(1) %2, ptr noundef nonnull align 1 dereferenceable(1) %3) #3 comdat {
  %5 = alloca %"class.__gnu_cxx::__normal_iterator", align 8
  %6 = alloca %"class.__gnu_cxx::__normal_iterator", align 8
  %7 = alloca ptr, align 8
  %8 = alloca ptr, align 8
  %9 = getelementptr inbounds %"class.__gnu_cxx::__normal_iterator", ptr %5, i32 0, i32 0
  store ptr %0, ptr %9, align 8
  %10 = getelementptr inbounds %"class.__gnu_cxx::__normal_iterator", ptr %6, i32 0, i32 0
  store ptr %1, ptr %10, align 8
  store ptr %2, ptr %7, align 8
  store ptr %3, ptr %8, align 8
  br label %11

11:                                               ; preds = %26, %4
  %12 = call noundef zeroext i1 @_ZN9__gnu_cxxneIPcNSt7__cxx1112basic_stringIcSt11char_traitsIcESaIcEEEEEbRKNS_17__normal_iteratorIT_T0_EESD_(ptr noundef nonnull align 8 dereferenceable(8) %5, ptr noundef nonnull align 8 dereferenceable(8) %6) #12
  br i1 %12, label %13, label %28

13:                                               ; preds = %11
  %14 = call noundef nonnull align 1 dereferenceable(1) ptr @_ZNK9__gnu_cxx17__normal_iteratorIPcNSt7__cxx1112basic_stringIcSt11char_traitsIcESaIcEEEEdeEv(ptr noundef nonnull align 8 dereferenceable(8) %5) #12
  %15 = load i8, ptr %14, align 1
  %16 = sext i8 %15 to i32
  %17 = load ptr, ptr %7, align 8
  %18 = load i8, ptr %17, align 1
  %19 = sext i8 %18 to i32
  %20 = icmp eq i32 %16, %19
  br i1 %20, label %21, label %25

21:                                               ; preds = %13
  %22 = load ptr, ptr %8, align 8
  %23 = load i8, ptr %22, align 1
  %24 = call noundef nonnull align 1 dereferenceable(1) ptr @_ZNK9__gnu_cxx17__normal_iteratorIPcNSt7__cxx1112basic_stringIcSt11char_traitsIcESaIcEEEEdeEv(ptr noundef nonnull align 8 dereferenceable(8) %5) #12
  store i8 %23, ptr %24, align 1
  br label %25

25:                                               ; preds = %21, %13
  br label %26

26:                                               ; preds = %25
  %27 = call noundef nonnull align 8 dereferenceable(8) ptr @_ZN9__gnu_cxx17__normal_iteratorIPcNSt7__cxx1112basic_stringIcSt11char_traitsIcESaIcEEEEppEv(ptr noundef nonnull align 8 dereferenceable(8) %5) #12
  br label %11, !llvm.loop !4

28:                                               ; preds = %11
  ret void
}

; Function Attrs: mustprogress nounwind uwtable
define linkonce_odr ptr @_ZSt3endINSt7__cxx1112basic_stringIcSt11char_traitsIcESaIcEEEEDTcldtfp_3endEERT_(ptr noundef nonnull align 8 dereferenceable(32) %0) #3 comdat {
  %2 = alloca %"class.__gnu_cxx::__normal_iterator", align 8
  %3 = alloca ptr, align 8
  store ptr %0, ptr %3, align 8
  %4 = load ptr, ptr %3, align 8
  %5 = call ptr @_ZNSt7__cxx1112basic_stringIcSt11char_traitsIcESaIcEE3endEv(ptr noundef nonnull align 8 dereferenceable(32) %4) #12
  %6 = getelementptr inbounds %"class.__gnu_cxx::__normal_iterator", ptr %2, i32 0, i32 0
  store ptr %5, ptr %6, align 8
  %7 = getelementptr inbounds %"class.__gnu_cxx::__normal_iterator", ptr %2, i32 0, i32 0
  %8 = load ptr, ptr %7, align 8
  ret ptr %8
}

; Function Attrs: mustprogress nounwind uwtable
define linkonce_odr ptr @_ZSt5beginINSt7__cxx1112basic_stringIcSt11char_traitsIcESaIcEEEEDTcldtfp_5beginEERT_(ptr noundef nonnull align 8 dereferenceable(32) %0) #3 comdat {
  %2 = alloca %"class.__gnu_cxx::__normal_iterator", align 8
  %3 = alloca ptr, align 8
  store ptr %0, ptr %3, align 8
  %4 = load ptr, ptr %3, align 8
  %5 = call ptr @_ZNSt7__cxx1112basic_stringIcSt11char_traitsIcESaIcEE5beginEv(ptr noundef nonnull align 8 dereferenceable(32) %4) #12
  %6 = getelementptr inbounds %"class.__gnu_cxx::__normal_iterator", ptr %2, i32 0, i32 0
  store ptr %5, ptr %6, align 8
  %7 = getelementptr inbounds %"class.__gnu_cxx::__normal_iterator", ptr %2, i32 0, i32 0
  %8 = load ptr, ptr %7, align 8
  ret ptr %8
}

; Function Attrs: mustprogress uwtable
define void @_ZN4LIEF3DEX5Class18package_normalizedERKNSt7__cxx1112basic_stringIcSt11char_traitsIcESaIcEEE(ptr dead_on_unwind noalias writable sret(%"class.std::__cxx11::basic_string") align 8 %0, ptr noundef nonnull align 8 dereferenceable(32) %1) #0 align 2 personality ptr @__gxx_personality_v0 {
  %3 = alloca ptr, align 8
  %4 = alloca ptr, align 8
  %5 = alloca i1, align 1
  %6 = alloca %"class.std::__cxx11::basic_string", align 8
  %7 = alloca ptr, align 8
  %8 = alloca i32, align 4
  %9 = alloca %"class.__gnu_cxx::__normal_iterator", align 8
  %10 = alloca %"class.__gnu_cxx::__normal_iterator", align 8
  %11 = alloca i8, align 1
  %12 = alloca i8, align 1
  store ptr %0, ptr %3, align 8
  store ptr %1, ptr %4, align 8
  store i1 false, ptr %5, align 1
  %13 = load ptr, ptr %4, align 8
  call void @_ZNSt7__cxx1112basic_stringIcSt11char_traitsIcESaIcEEC1ERKS4_(ptr noundef nonnull align 8 dereferenceable(32) %0, ptr noundef nonnull align 8 dereferenceable(32) %13)
  %14 = call noundef nonnull align 1 dereferenceable(1) ptr @_ZNSt7__cxx1112basic_stringIcSt11char_traitsIcESaIcEE4backEv(ptr noundef nonnull align 8 dereferenceable(32) %0) #12
  %15 = load i8, ptr %14, align 1
  %16 = sext i8 %15 to i32
  %17 = icmp eq i32 %16, 47
  br i1 %17, label %18, label %27

18:                                               ; preds = %2
  %19 = call noundef i64 @_ZNKSt7__cxx1112basic_stringIcSt11char_traitsIcESaIcEE4sizeEv(ptr noundef nonnull align 8 dereferenceable(32) %0) #12
  %20 = sub i64 %19, 1
  invoke void @_ZNKSt7__cxx1112basic_stringIcSt11char_traitsIcESaIcEE6substrEmm(ptr dead_on_unwind writable sret(%"class.std::__cxx11::basic_string") align 8 %6, ptr noundef nonnull align 8 dereferenceable(32) %0, i64 noundef 0, i64 noundef %20)
          to label %21 unwind label %23

21:                                               ; preds = %18
  %22 = call noundef nonnull align 8 dereferenceable(32) ptr @_ZNSt7__cxx1112basic_stringIcSt11char_traitsIcESaIcEEaSEOS4_(ptr noundef nonnull align 8 dereferenceable(32) %0, ptr noundef nonnull align 8 dereferenceable(32) %6) #12
  call void @_ZNSt7__cxx1112basic_stringIcSt11char_traitsIcESaIcEED1Ev(ptr noundef nonnull align 8 dereferenceable(32) %6) #12
  br label %27

23:                                               ; preds = %32, %29, %27, %18
  %24 = landingpad { ptr, i32 }
          cleanup
  %25 = extractvalue { ptr, i32 } %24, 0
  store ptr %25, ptr %7, align 8
  %26 = extractvalue { ptr, i32 } %24, 1
  store i32 %26, ptr %8, align 4
  call void @_ZNSt7__cxx1112basic_stringIcSt11char_traitsIcESaIcEED1Ev(ptr noundef nonnull align 8 dereferenceable(32) %0) #12
  br label %42

27:                                               ; preds = %21, %2
  %28 = invoke ptr @_ZSt5beginINSt7__cxx1112basic_stringIcSt11char_traitsIcESaIcEEEEDTcldtfp_5beginEERT_(ptr noundef nonnull align 8 dereferenceable(32) %0)
          to label %29 unwind label %23

29:                                               ; preds = %27
  %30 = getelementptr inbounds %"class.__gnu_cxx::__normal_iterator", ptr %9, i32 0, i32 0
  store ptr %28, ptr %30, align 8
  %31 = invoke ptr @_ZSt3endINSt7__cxx1112basic_stringIcSt11char_traitsIcESaIcEEEEDTcldtfp_3endEERT_(ptr noundef nonnull align 8 dereferenceable(32) %0)
          to label %32 unwind label %23

32:                                               ; preds = %29
  %33 = getelementptr inbounds %"class.__gnu_cxx::__normal_iterator", ptr %10, i32 0, i32 0
  store ptr %31, ptr %33, align 8
  store i8 46, ptr %11, align 1
  store i8 47, ptr %12, align 1
  %34 = getelementptr inbounds %"class.__gnu_cxx::__normal_iterator", ptr %9, i32 0, i32 0
  %35 = load ptr, ptr %34, align 8
  %36 = getelementptr inbounds %"class.__gnu_cxx::__normal_iterator", ptr %10, i32 0, i32 0
  %37 = load ptr, ptr %36, align 8
  invoke void @_ZSt7replaceIN9__gnu_cxx17__normal_iteratorIPcNSt7__cxx1112basic_stringIcSt11char_traitsIcESaIcEEEEEcEvT_SA_RKT0_SD_(ptr %35, ptr %37, ptr noundef nonnull align 1 dereferenceable(1) %11, ptr noundef nonnull align 1 dereferenceable(1) %12)
          to label %38 unwind label %23

38:                                               ; preds = %32
  store i1 true, ptr %5, align 1
  %39 = load i1, ptr %5, align 1
  br i1 %39, label %41, label %40

40:                                               ; preds = %38
  call void @_ZNSt7__cxx1112basic_stringIcSt11char_traitsIcESaIcEED1Ev(ptr noundef nonnull align 8 dereferenceable(32) %0) #12
  br label %41

41:                                               ; preds = %40, %38
  ret void

42:                                               ; preds = %23
  %43 = load ptr, ptr %7, align 8
  %44 = load i32, ptr %8, align 4
  %45 = insertvalue { ptr, i32 } poison, ptr %43, 0
  %46 = insertvalue { ptr, i32 } %45, i32 %44, 1
  resume { ptr, i32 } %46
}