; Function Attrs: mustprogress uwtable
define void @_ZN4LIEF3DEX5Class18package_normalizedERKNSt7__cxx1112basic_stringIcSt11char_traitsIcESaIcEEE(ptr dead_on_unwind noalias nonnull writable sret(%"class.std::__cxx11::basic_string") align 8 %0, ptr noundef nonnull align 8 dereferenceable(32) %1) local_unnamed_addr #0 align 2 personality ptr @__gxx_personality_v0 {
  %3 = alloca %"class.std::__cxx11::basic_string", align 8
  tail call void @_ZNSt7__cxx1112basic_stringIcSt11char_traitsIcESaIcEEC1ERKS4_(ptr noundef nonnull align 8 dereferenceable(32) %0, ptr noundef nonnull align 8 dereferenceable(32) %1)
  %4 = tail call noundef nonnull align 1 dereferenceable(1) ptr @_ZNSt7__cxx1112basic_stringIcSt11char_traitsIcESaIcEE4backEv(ptr noundef nonnull align 8 dereferenceable(32) %0) #17
  %5 = load i8, ptr %4, align 1
  %6 = icmp eq i8 %5, 47
  br i1 %6, label %7, label %14

7:                                                ; preds = %2
  %8 = tail call noundef i64 @_ZNKSt7__cxx1112basic_stringIcSt11char_traitsIcESaIcEE4sizeEv(ptr noundef nonnull align 8 dereferenceable(32) %0) #17
  %9 = add i64 %8, -1
  invoke void @_ZNKSt7__cxx1112basic_stringIcSt11char_traitsIcESaIcEE6substrEmm(ptr dead_on_unwind nonnull writable sret(%"class.std::__cxx11::basic_string") align 8 %3, ptr noundef nonnull align 8 dereferenceable(32) %0, i64 noundef 0, i64 noundef %9)
          to label %10 unwind label %12

10:                                               ; preds = %7
  %11 = call noundef nonnull align 8 dereferenceable(32) ptr @_ZNSt7__cxx1112basic_stringIcSt11char_traitsIcESaIcEEaSEOS4_(ptr noundef nonnull align 8 dereferenceable(32) %0, ptr noundef nonnull align 8 dereferenceable(32) %3) #17
  call void @_ZNSt7__cxx1112basic_stringIcSt11char_traitsIcESaIcEED1Ev(ptr noundef nonnull align 8 dereferenceable(32) %3) #17
  br label %14

12:                                               ; preds = %7
  %13 = landingpad { ptr, i32 }
          cleanup
  call void @_ZNSt7__cxx1112basic_stringIcSt11char_traitsIcESaIcEED1Ev(ptr noundef nonnull align 8 dereferenceable(32) %0) #17
  resume { ptr, i32 } %13

14:                                               ; preds = %10, %2
  %15 = call ptr @_ZNSt7__cxx1112basic_stringIcSt11char_traitsIcESaIcEE5beginEv(ptr noundef nonnull align 8 dereferenceable(32) %0) #17
  %16 = call ptr @_ZNSt7__cxx1112basic_stringIcSt11char_traitsIcESaIcEE3endEv(ptr noundef nonnull align 8 dereferenceable(32) %0) #17
  %.not6.i = icmp eq ptr %15, %16
  br i1 %.not6.i, label %_ZSt7replaceIN9__gnu_cxx17__normal_iteratorIPcNSt7__cxx1112basic_stringIcSt11char_traitsIcESaIcEEEEEcEvT_SA_RKT0_SD_.exit, label %.lr.ph.i

.lr.ph.i:                                         ; preds = %14, %20
  %.sroa.02.07.i = phi ptr [ %21, %20 ], [ %15, %14 ]
  %17 = load i8, ptr %.sroa.02.07.i, align 1
  %18 = icmp eq i8 %17, 46
  br i1 %18, label %19, label %20

19:                                               ; preds = %.lr.ph.i
  store i8 47, ptr %.sroa.02.07.i, align 1
  br label %20

20:                                               ; preds = %19, %.lr.ph.i
  %21 = getelementptr inbounds i8, ptr %.sroa.02.07.i, i64 1
  %.not.i = icmp eq ptr %21, %16
  br i1 %.not.i, label %_ZSt7replaceIN9__gnu_cxx17__normal_iteratorIPcNSt7__cxx1112basic_stringIcSt11char_traitsIcESaIcEEEEEcEvT_SA_RKT0_SD_.exit, label %.lr.ph.i, !llvm.loop !4

_ZSt7replaceIN9__gnu_cxx17__normal_iteratorIPcNSt7__cxx1112basic_stringIcSt11char_traitsIcESaIcEEEEEcEvT_SA_RKT0_SD_.exit: ; preds = %20, %14
  ret void
}